Certificate:
    Data:
        Version: 3 (0x2)
        Serial Number: 1 (0x1)
    Signature Algorithm: sha256WithRSAEncryption
        Issuer: CN=QUIC Server Root CA
        Validity
            Not Before: Apr  8 18:37:35 2016 GMT
            Not After : Apr 11 18:37:35 2016 GMT
        Subject: C=US, ST=California, L=Mountain View, O=QUIC Server, CN=127.0.0.1
        Subject Public Key Info:
            Public Key Algorithm: rsaEncryption
                Public-Key: (2048 bit)
                Modulus:
                    00:ce:01:5d:95:0a:aa:a5:94:78:ae:3b:fb:49:19:
                    6c:0a:0d:7f:33:8f:e9:c4:50:1a:5c:c3:9b:36:77:
                    95:62:8a:aa:14:05:3e:70:10:b6:d7:7e:91:1f:d5:
                    9e:66:a7:fa:fa:29:5d:0f:1b:cf:3e:6d:d8:ae:1f:
                    8b:66:c7:f0:a6:61:e8:02:03:e0:c5:7c:40:d3:1f:
                    b4:89:cd:50:2d:53:1a:31:30:89:9f:58:37:0d:18:
                    3d:73:5f:6d:21:3b:b8:e8:2e:37:5a:51:80:58:46:
                    77:c9:b6:d5:f8:93:23:93:3e:82:77:eb:62:7f:d8:
                    f3:cd:f6:b4:f2:59:ab:81:9f:1f:95:51:c2:f8:bf:
                    f5:ab:05:a0:80:f7:ec:8e:7c:45:d6:46:68:6a:c4:
                    8b:37:ef:9b:d9:e8:b6:79:09:89:94:ba:fd:65:96:
                    25:d1:52:3d:2e:9d:c2:ca:6b:c1:47:1e:b8:17:d9:
                    f2:2e:b9:5c:d4:be:bb:bd:1b:ba:01:07:b0:52:88:
                    a3:da:ab:1b:f5:b3:76:32:1f:e8:22:d5:bb:2b:a3:
                    72:34:92:6d:7e:ab:99:db:37:3c:e1:d2:6e:b8:61:
                    79:11:ca:8b:6a:58:c0:f1:45:81:4f:ae:41:bc:21:
                    e4:03:ea:90:5b:52:22:47:26:67:99:15:28:97:2f:
                    e5:b9
                Exponent: 65537 (0x10001)
        X509v3 extensions:
            X509v3 Basic Constraints: critical
                CA:FALSE
            X509v3 Subject Key Identifier: 
                57:C6:6A:3C:8C:A3:E5:79:CC:D2:2B:C1:3F:F7:D5:EF:63:3E:29:B6
            X509v3 Authority Key Identifier: 
                keyid:19:22:F2:E1:61:54:AF:69:56:E7:98:50:56:C6:00:47:A2:83:77:B6

            X509v3 Extended Key Usage: 
                TLS Web Server Authentication, TLS Web Client Authentication
            X509v3 Subject Alternative Name: 
                DNS:www.example.org, DNS:mail.example.org, DNS:mail.example.com, IP Address:127.0.0.1
    Signature Algorithm: sha256WithRSAEncryption
         42:3b:dd:e0:08:0a:a2:a8:95:c6:ac:10:a7:42:c5:8a:7e:4b:
         29:9d:21:bb:6b:64:e6:63:4f:ac:40:bf:a6:14:09:f7:a2:c4:
         44:55:cb:66:2c:ef:30:f1:bd:6e:31:b7:56:c1:4b:3a:d8:b1:
         b8:22:60:22:30:7c:ca:52:48:5e:94:6f:0f:e4:cb:51:31:9a:
         f5:b3:a1:09:9b:9a:c9:9d:cb:87:04:4c:49:0d:47:a9:9b:9d:
         21:08:7f:4d:6d:7b:27:5d:20:83:01:6f:4a:0d:f3:06:1b:33:
         7f:a9:da:42:14:f2:fd:06:d0:c5:ff:b3:22:e5:6d:7c:ea:5f:
         ac:4f:7f:82:47:b3:ca:ac:70:d6:7d:23:7e:0f:c8:65:1a:d3:
         ee:7d:99:89:e1:3e:70:67:58:67:cf:88:71:3b:30:8a:c1:9a:
         45:b6:a3:c2:71:e2:5a:41:33:b0:3e:a4:5c:74:a9:95:b7:be:
         a7:ff:b2:11:fb:b5:77:f3:e2:90:84:0b:33:a9:e1:aa:a3:3c:
         87:52:a5:b7:88:69:e9:cc:88:c1:31:4a:84:a0:07:40:29:e0:
         10:d9:bd:a8:7d:f7:c2:f5:55:7a:65:8a:88:c2:24:ba:76:8b:
         35:c8:e3:5f:68:d7:88:51:98:39:13:d3:7f:be:61:d5:68:ca:
         98:ec:39:ca
-----BEGIN CERTIFICATE-----
MIIDtDCCApygAwIBAgIBATANBgkqhkiG9w0BAQsFADAeMRwwGgYDVQQDDBNRVUlD
IFNlcnZlciBSb290IENBMB4XDTE2MDQwODE4MzczNVoXDTE2MDQxMTE4MzczNVow
ZDELMAkGA1UEBhMCVVMxEzARBgNVBAgMCkNhbGlmb3JuaWExFjAUBgNVBAcMDU1v
dW50YWluIFZpZXcxFDASBgNVBAoMC1FVSUMgU2VydmVyMRIwEAYDVQQDDAkxMjcu
MC4wLjEwggEiMA0GCSqGSIb3DQEBAQUAA4IBDwAwggEKAoIBAQDOAV2VCqqllHiu
O/tJGWwKDX8zj+nEUBpcw5s2d5ViiqoUBT5wELbXfpEf1Z5mp/r6KV0PG88+bdiu
H4tmx/CmYegCA+DFfEDTH7SJzVAtUxoxMImfWDcNGD1zX20hO7joLjdaUYBYRnfJ
ttX4kyOTPoJ362J/2PPN9rTyWauBnx+VUcL4v/WrBaCA9+yOfEXWRmhqxIs375vZ
6LZ5CYmUuv1lliXRUj0uncLKa8FHHrgX2fIuuVzUvru9G7oBB7BSiKPaqxv1s3Yy
H+gi1bsro3I0km1+q5nbNzzh0m64YXkRyotqWMDxRYFPrkG8IeQD6pBbUiJHJmeZ
FSiXL+W5AgMBAAGjgbYwgbMwDAYDVR0TAQH/BAIwADAdBgNVHQ4EFgQUV8ZqPIyj
5XnM0ivBP/fV72M+KbYwHwYDVR0jBBgwFoAUGSLy4WFUr2lW55hQVsYAR6KDd7Yw
HQYDVR0lBBYwFAYIKwYBBQUHAwEGCCsGAQUFBwMCMEQGA1UdEQQ9MDuCD3d3dy5l
eGFtcGxlLm9yZ4IQbWFpbC5leGFtcGxlLm9yZ4IQbWFpbC5leGFtcGxlLmNvbYcE
fwAAATANBgkqhkiG9w0BAQsFAAOCAQEAQjvd4AgKoqiVxqwQp0LFin5LKZ0hu2tk
5mNPrEC/phQJ96LERFXLZizvMPG9bjG3VsFLOtixuCJgIjB8ylJIXpRvD+TLUTGa
9bOhCZuayZ3LhwRMSQ1HqZudIQh/TW17J10ggwFvSg3zBhszf6naQhTy/QbQxf+z
IuVtfOpfrE9/gkezyqxw1n0jfg/IZRrT7n2ZieE+cGdYZ8+IcTswisGaRbajwnHi
WkEzsD6kXHSplbe+p/+yEfu1d/PikIQLM6nhqqM8h1Klt4hp6cyIwTFKhKAHQCng
ENm9qH33wvVVemWKiMIkunaLNcjjX2jXiFGYORPTf75h1WjKmOw5yg==
-----END CERTIFICATE-----
