Certificate:
    Data:
        Version: 3 (0x2)
        Serial Number:
            c4:86:3a:26:61:94:86:4c
    Signature Algorithm: sha256WithRSAEncryption
        Issuer: CN = QUIC Server Root CA
        Validity
            Not Before: Apr  8 18:37:35 2016 GMT
            Not After : Apr 11 18:37:35 2016 GMT
        Subject: CN = QUIC Server Root CA
        Subject Public Key Info:
            Public Key Algorithm: rsaEncryption
                Public-Key: (2048 bit)
                Modulus:
                    00:b5:36:e1:8b:c2:b4:fc:3f:5e:1e:1f:93:bd:69:
                    de:84:19:41:35:ba:30:20:46:29:66:82:7e:58:f3:
                    96:3c:7e:b9:2d:06:d2:55:ea:0a:53:54:f0:cf:f4:
                    6f:b6:ce:47:4c:2d:98:18:26:c0:7c:ee:70:7a:54:
                    82:0b:e3:56:b8:b0:3a:26:80:6b:92:99:9a:33:10:
                    06:ef:19:72:2b:a7:a1:34:9c:4e:fd:0a:7f:2b:3c:
                    6d:72:34:e0:e6:d2:5e:71:ae:84:d7:87:7a:9c:06:
                    df:67:df:19:dd:dd:8a:f4:9c:68:0c:17:dd:35:00:
                    54:fe:28:f4:75:f9:ae:95:b3:88:80:ea:91:bd:b2:
                    c4:92:10:a2:1e:87:d9:d4:3e:a5:c2:59:a3:1b:34:
                    f7:0a:83:22:80:23:a6:ba:28:ef:db:a2:af:8a:a5:
                    1a:95:c7:2d:bc:d6:c8:9e:6e:27:03:1a:de:d3:9e:
                    0b:63:22:33:1b:9c:55:8e:bf:93:de:1a:ba:d3:17:
                    8d:e9:fd:f9:66:27:ef:ad:97:90:b9:73:8e:0d:b0:
                    ab:61:a2:61:0b:94:69:e2:15:9a:92:ea:ee:35:4a:
                    35:c7:f9:00:14:72:f9:87:7b:13:9c:99:9e:14:58:
                    a6:2f:a6:08:46:5e:75:03:97:1f:52:2c:0b:ac:d8:
                    b1:fd
                Exponent: 65537 (0x10001)
        X509v3 extensions:
            X509v3 Basic Constraints: critical
                CA:TRUE
            X509v3 Subject Key Identifier: 
                19:22:F2:E1:61:54:AF:69:56:E7:98:50:56:C6:00:47:A2:83:77:B6
            X509v3 Key Usage: critical
                Certificate Sign, CRL Sign
    Signature Algorithm: sha256WithRSAEncryption
         8d:84:c0:11:f4:80:9a:dc:9c:a0:a1:a2:c7:0b:06:91:b4:b9:
         84:5a:f0:eb:c1:5c:d1:35:f5:e5:9e:32:b9:53:6b:42:79:03:
         5a:27:9a:2d:a2:57:19:77:37:b8:28:18:57:47:51:32:0f:c5:
         78:31:42:4b:f5:2c:3a:de:54:6c:18:a0:14:39:f7:11:9f:be:
         7c:3d:5f:9b:48:16:00:48:60:71:be:b3:23:9c:81:43:01:6c:
         96:9f:57:9b:ce:66:96:a7:6d:b6:57:52:ab:40:4c:0e:24:eb:
         c4:77:57:0d:01:1f:64:22:d8:e8:9d:80:0e:35:63:ea:19:97:
         15:45:9f:e7:1a:e0:ce:ae:a6:75:de:4e:22:35:cf:86:cb:10:
         cb:c1:66:de:4e:00:bd:5e:83:4a:d0:d1:76:e9:1f:8c:c8:b9:
         a5:f9:31:83:9e:3b:bf:74:33:c5:b0:1e:ef:44:24:31:3e:1f:
         fe:83:b7:fd:47:31:47:5b:c1:aa:ed:20:3a:84:49:9c:2b:a2:
         af:a7:6d:06:a3:bb:19:b9:f9:f8:9e:0a:1c:d3:e4:a2:74:ec:
         dc:c0:f5:4a:70:16:d8:ff:6c:af:8f:93:da:cc:21:e2:a6:15:
         7d:4a:c3:2f:75:3e:1f:d7:8e:3c:14:c9:2c:83:59:e1:d0:e8:
         52:01:b7:cc
-----BEGIN CERTIFICATE-----
MIIDATCCAemgAwIBAgIJAMSGOiZhlIZMMA0GCSqGSIb3DQEBCwUAMB4xHDAaBgNV
BAMME1FVSUMgU2VydmVyIFJvb3QgQ0EwHhcNMTYwNDA4MTgzNzM1WhcNMTYwNDEx
MTgzNzM1WjAeMRwwGgYDVQQDDBNRVUlDIFNlcnZlciBSb290IENBMIIBIjANBgkq
hkiG9w0BAQEFAAOCAQ8AMIIBCgKCAQEAtTbhi8K0/D9eHh+TvWnehBlBNbowIEYp
ZoJ+WPOWPH65LQbSVeoKU1Twz/Rvts5HTC2YGCbAfO5welSCC+NWuLA6JoBrkpma
MxAG7xlyK6ehNJxO/Qp/KzxtcjTg5tJeca6E14d6nAbfZ98Z3d2K9JxoDBfdNQBU
/ij0dfmulbOIgOqRvbLEkhCiHofZ1D6lwlmjGzT3CoMigCOmuijv26KviqUalcct
vNbInm4nAxre054LYyIzG5xVjr+T3hq60xeN6f35ZifvrZeQuXOODbCrYaJhC5Rp
4hWakuruNUo1x/kAFHL5h3sTnJmeFFimL6YIRl51A5cfUiwLrNix/QIDAQABo0Iw
QDAPBgNVHRMBAf8EBTADAQH/MB0GA1UdDgQWBBQZIvLhYVSvaVbnmFBWxgBHooN3
tjAOBgNVHQ8BAf8EBAMCAQYwDQYJKoZIhvcNAQELBQADggEBAI2EwBH0gJrcnKCh
oscLBpG0uYRa8OvBXNE19eWeMrlTa0J5A1onmi2iVxl3N7goGFdHUTIPxXgxQkv1
LDreVGwYoBQ59xGfvnw9X5tIFgBIYHG+syOcgUMBbJafV5vOZpanbbZXUqtATA4k
68R3Vw0BH2Qi2OidgA41Y+oZlxVFn+ca4M6upnXeTiI1z4bLEMvBZt5OAL1eg0rQ
0XbpH4zIuaX5MYOeO790M8WwHu9EJDE+H/6Dt/1HMUdbwartIDqESZwroq+nbQaj
uxm5+fieChzT5KJ07NzA9UpwFtj/bK+Pk9rMIeKmFX1Kwy91Ph/XjjwUySyDWeHQ
6FIBt8w=
-----END CERTIFICATE-----
