Certificate:
    Data:
        Version: 3 (0x2)
        Serial Number:
            a2:71:62:9a:2e:c3:e3:45
    Signature Algorithm: sha256WithRSAEncryption
        Issuer: CN = QUIC Server Root CA
        Validity
            Not Before: Mar 31 00:14:20 2016 GMT
            Not After : Apr  3 00:14:20 2016 GMT
        Subject: CN = QUIC Server Root CA
        Subject Public Key Info:
            Public Key Algorithm: rsaEncryption
                Public-Key: (2048 bit)
                Modulus:
                    00:b7:a8:4b:aa:3f:1f:ff:97:90:9c:77:04:47:55:
                    66:3b:2e:da:11:34:e1:cf:cf:28:8f:f2:07:1f:da:
                    0b:8e:eb:0d:90:3f:06:51:64:40:16:da:a3:bc:0f:
                    7c:95:de:c5:3f:fd:37:d4:83:b7:84:0d:d0:a6:26:
                    83:65:27:e3:53:e4:0d:09:9f:b0:dd:44:67:3d:c4:
                    48:e6:e8:cd:cf:87:a9:db:e5:c8:7e:e5:36:3a:81:
                    3d:38:3b:78:c0:09:13:9b:fa:50:da:bd:65:8e:a2:
                    c3:57:f7:33:75:86:28:88:8e:d4:ee:06:57:ef:26:
                    b8:48:bd:a6:e5:fc:ac:6d:e7:08:f5:d8:12:d4:4e:
                    da:40:d3:54:e4:38:cb:cf:cf:d8:89:05:68:93:ea:
                    85:b5:0c:2b:a6:f4:64:54:04:b3:4b:00:82:90:83:
                    50:56:2d:e0:4d:18:c6:98:54:51:c5:b7:ef:58:45:
                    70:c9:b1:b0:6c:42:41:df:ea:76:0d:dd:db:87:b6:
                    3c:0f:b6:45:d1:0a:4e:77:4b:ac:92:9d:e0:af:bb:
                    4f:be:06:fc:25:fc:da:9e:dc:4c:91:15:76:d5:4a:
                    15:d0:7c:1c:87:ad:ce:5d:38:55:7f:20:89:9b:b0:
                    f4:d2:c5:82:58:99:02:3a:cc:2f:9d:0a:0c:0e:26:
                    b0:b9
                Exponent: 65537 (0x10001)
        X509v3 extensions:
            X509v3 Basic Constraints: critical
                CA:TRUE
            X509v3 Subject Key Identifier: 
                15:1D:FC:32:49:CD:F5:3B:13:62:4F:A7:49:23:90:98:64:66:B6:57
            X509v3 Key Usage: critical
                Certificate Sign, CRL Sign
    Signature Algorithm: sha256WithRSAEncryption
         80:bd:fd:1a:cb:4d:19:c0:b0:a9:8a:9a:3e:64:75:93:09:9b:
         66:48:48:7c:97:c5:03:e7:d1:4a:54:ab:3d:52:c9:e2:44:1b:
         4e:e3:e8:bb:8d:6e:62:83:a9:f3:9e:3f:4d:b3:0b:54:50:fb:
         12:ff:ab:b3:c5:7c:b9:55:30:62:9b:b1:4a:5b:f3:1c:9c:e5:
         55:83:ad:1c:d5:b6:a9:5d:d9:0f:cc:c7:9c:19:c2:01:c7:a7:
         93:55:96:60:5d:e8:9b:ce:22:56:06:af:f6:68:bb:21:80:15:
         a9:00:5c:f5:60:ad:b8:f1:58:05:f6:8a:04:6a:aa:e1:6d:27:
         65:0b:8b:3d:88:41:14:ee:92:ec:ef:d1:09:16:02:8c:a7:a1:
         f9:0c:5f:15:6b:ea:56:93:e0:f6:cb:f1:cc:4d:c7:d5:15:11:
         bd:6c:58:17:90:ed:0e:95:d6:d7:bd:e8:10:59:35:97:71:d9:
         6f:a3:7d:70:25:30:64:ac:38:88:82:eb:a3:62:70:1e:99:6c:
         bc:6f:2b:de:35:ab:26:ad:dc:86:86:65:2d:4a:27:25:db:72:
         05:72:6c:f4:38:19:39:89:6c:d0:10:b7:94:d9:c8:ac:63:ea:
         97:53:46:9c:3b:87:c3:0b:1a:08:a6:f8:c4:d4:b8:84:9e:a5:
         94:d5:ca:92
-----BEGIN CERTIFICATE-----
MIIDATCCAemgAwIBAgIJAKJxYpouw+NFMA0GCSqGSIb3DQEBCwUAMB4xHDAaBgNV
BAMME1FVSUMgU2VydmVyIFJvb3QgQ0EwHhcNMTYwMzMxMDAxNDIwWhcNMTYwNDAz
MDAxNDIwWjAeMRwwGgYDVQQDDBNRVUlDIFNlcnZlciBSb290IENBMIIBIjANBgkq
hkiG9w0BAQEFAAOCAQ8AMIIBCgKCAQEAt6hLqj8f/5eQnHcER1VmOy7aETThz88o
j/IHH9oLjusNkD8GUWRAFtqjvA98ld7FP/031IO3hA3QpiaDZSfjU+QNCZ+w3URn
PcRI5ujNz4ep2+XIfuU2OoE9ODt4wAkTm/pQ2r1ljqLDV/czdYYoiI7U7gZX7ya4
SL2m5fysbecI9dgS1E7aQNNU5DjLz8/YiQVok+qFtQwrpvRkVASzSwCCkINQVi3g
TRjGmFRRxbfvWEVwybGwbEJB3+p2Dd3bh7Y8D7ZF0QpOd0uskp3gr7tPvgb8Jfza
ntxMkRV21UoV0Hwch63OXThVfyCJm7D00sWCWJkCOswvnQoMDiawuQIDAQABo0Iw
QDAPBgNVHRMBAf8EBTADAQH/MB0GA1UdDgQWBBQVHfwySc31OxNiT6dJI5CYZGa2
VzAOBgNVHQ8BAf8EBAMCAQYwDQYJKoZIhvcNAQELBQADggEBAIC9/RrLTRnAsKmK
mj5kdZMJm2ZISHyXxQPn0UpUqz1SyeJEG07j6LuNbmKDqfOeP02zC1RQ+xL/q7PF
fLlVMGKbsUpb8xyc5VWDrRzVtqld2Q/Mx5wZwgHHp5NVlmBd6JvOIlYGr/ZouyGA
FakAXPVgrbjxWAX2igRqquFtJ2ULiz2IQRTukuzv0QkWAoynofkMXxVr6laT4PbL
8cxNx9UVEb1sWBeQ7Q6V1te96BBZNZdx2W+jfXAlMGSsOIiC66NicB6ZbLxvK941
qyat3IaGZS1KJyXbcgVybPQ4GTmJbNAQt5TZyKxj6pdTRpw7h8MLGgim+MTUuISe
pZTVypI=
-----END CERTIFICATE-----
