Certificate:
    Data:
        Version: 3 (0x2)
        Serial Number: 1 (0x1)
    Signature Algorithm: sha256WithRSAEncryption
        Issuer: CN=QUIC Server Root CA
        Validity
            Not Before: Mar 31 00:14:20 2016 GMT
            Not After : Apr  3 00:14:20 2016 GMT
        Subject: C=US, ST=California, L=Mountain View, O=QUIC Server, CN=127.0.0.1
        Subject Public Key Info:
            Public Key Algorithm: rsaEncryption
                Public-Key: (2048 bit)
                Modulus:
                    00:ca:c0:0c:fe:0e:1e:ee:79:5c:1b:bc:78:1b:f8:
                    af:a7:91:51:7e:39:b0:28:77:0f:91:01:68:5e:f5:
                    b5:6a:18:41:61:84:c9:81:26:0f:c2:9e:66:af:33:
                    cd:f6:5f:a7:a4:7a:bb:88:5c:4e:93:7c:06:f9:e9:
                    43:99:57:85:4d:fc:89:ed:56:62:1b:45:2b:aa:ad:
                    00:14:f4:31:6d:66:3a:2e:55:50:01:92:fd:08:57:
                    af:56:1a:5e:03:6e:b7:e5:2d:d8:4a:75:77:fb:1c:
                    cd:1e:f7:a7:c4:dc:b9:b1:83:74:80:3b:b9:a1:0b:
                    ce:0e:3a:09:f9:c5:ba:a4:35:b1:57:a6:a1:17:d3:
                    ce:71:5a:6a:0a:5d:d1:d2:b5:05:b6:78:3f:8d:94:
                    e3:20:ed:3a:fd:c8:0f:f8:20:1a:ff:22:31:e2:90:
                    a3:e9:97:f4:8a:11:eb:29:6a:79:c5:5a:24:78:2a:
                    f0:9f:1d:d4:58:aa:27:43:f9:7a:ca:ea:2f:e0:4e:
                    5a:27:50:98:d7:88:07:be:28:db:d4:20:8e:3e:d7:
                    0c:80:ff:23:a2:12:72:14:c1:c6:04:4d:49:8c:2c:
                    bb:35:f3:55:8c:4e:43:b8:0d:a6:75:f3:f6:89:b9:
                    f9:43:92:54:0b:f5:ae:0a:cd:6a:62:bc:80:47:19:
                    86:2f
                Exponent: 65537 (0x10001)
        X509v3 extensions:
            X509v3 Basic Constraints: critical
                CA:FALSE
            X509v3 Subject Key Identifier: 
                7A:85:8D:80:97:4A:81:5C:DE:09:54:25:20:BE:CA:3D:19:D4:22:69
            X509v3 Authority Key Identifier: 
                keyid:15:1D:FC:32:49:CD:F5:3B:13:62:4F:A7:49:23:90:98:64:66:B6:57

            X509v3 Extended Key Usage: 
                TLS Web Server Authentication, TLS Web Client Authentication
            X509v3 Subject Alternative Name: 
                DNS:www.example.org, DNS:mail.example.org, DNS:mail.example.com, IP Address:127.0.0.1
    Signature Algorithm: sha256WithRSAEncryption
         42:bb:57:7f:12:52:bd:be:83:50:7a:4e:18:ba:6b:1d:70:e9:
         43:43:7b:a2:85:e6:fb:25:50:32:b6:ab:e3:71:9e:89:4b:c2:
         c9:18:a2:7c:e9:b7:b4:1a:3b:6c:13:4b:00:5a:75:6f:10:fa:
         97:2b:c7:8b:9d:01:b1:98:3a:84:44:a1:4a:71:36:cb:30:91:
         eb:00:82:e5:f8:01:69:0b:f3:8d:d0:f2:43:74:6e:b7:94:6c:
         35:9d:bd:ad:f4:ee:9b:b1:3c:12:8c:3b:77:09:8d:a3:ea:fb:
         eb:e3:22:4c:7d:27:3e:08:b3:08:8c:6c:cd:dd:41:69:eb:66:
         c4:c4:63:2b:39:ae:f3:a9:23:8b:5e:fd:39:79:b4:fc:cc:7a:
         37:fa:e0:69:83:3a:d3:a0:ce:a9:21:f2:12:6e:02:08:88:7d:
         bf:d4:e7:9a:a8:a1:87:32:4b:ce:aa:51:db:dd:3b:aa:bc:84:
         9f:51:b3:2f:4f:f0:32:e9:35:69:00:9c:29:f8:b8:76:9b:19:
         d3:e6:5d:9f:81:41:c0:f4:2e:ed:c4:62:de:53:91:a1:53:bc:
         11:bb:51:f0:9a:92:d6:47:a3:15:31:b2:da:07:86:61:67:a3:
         a6:c7:f6:8b:cb:68:72:ef:82:d4:40:0f:fc:b2:0d:62:63:5d:
         b8:b3:eb:b6
-----BEGIN CERTIFICATE-----
MIIDtDCCApygAwIBAgIBATANBgkqhkiG9w0BAQsFADAeMRwwGgYDVQQDDBNRVUlD
IFNlcnZlciBSb290IENBMB4XDTE2MDMzMTAwMTQyMFoXDTE2MDQwMzAwMTQyMFow
ZDELMAkGA1UEBhMCVVMxEzARBgNVBAgMCkNhbGlmb3JuaWExFjAUBgNVBAcMDU1v
dW50YWluIFZpZXcxFDASBgNVBAoMC1FVSUMgU2VydmVyMRIwEAYDVQQDDAkxMjcu
MC4wLjEwggEiMA0GCSqGSIb3DQEBAQUAA4IBDwAwggEKAoIBAQDKwAz+Dh7ueVwb
vHgb+K+nkVF+ObAodw+RAWhe9bVqGEFhhMmBJg/CnmavM832X6ekeruIXE6TfAb5
6UOZV4VN/IntVmIbRSuqrQAU9DFtZjouVVABkv0IV69WGl4DbrflLdhKdXf7HM0e
96fE3Lmxg3SAO7mhC84OOgn5xbqkNbFXpqEX085xWmoKXdHStQW2eD+NlOMg7Tr9
yA/4IBr/IjHikKPpl/SKEespannFWiR4KvCfHdRYqidD+XrK6i/gTlonUJjXiAe+
KNvUII4+1wyA/yOiEnIUwcYETUmMLLs181WMTkO4DaZ18/aJuflDklQL9a4KzWpi
vIBHGYYvAgMBAAGjgbYwgbMwDAYDVR0TAQH/BAIwADAdBgNVHQ4EFgQUeoWNgJdK
gVzeCVQlIL7KPRnUImkwHwYDVR0jBBgwFoAUFR38MknN9TsTYk+nSSOQmGRmtlcw
HQYDVR0lBBYwFAYIKwYBBQUHAwEGCCsGAQUFBwMCMEQGA1UdEQQ9MDuCD3d3dy5l
eGFtcGxlLm9yZ4IQbWFpbC5leGFtcGxlLm9yZ4IQbWFpbC5leGFtcGxlLmNvbYcE
fwAAATANBgkqhkiG9w0BAQsFAAOCAQEAQrtXfxJSvb6DUHpOGLprHXDpQ0N7ooXm
+yVQMrar43GeiUvCyRiifOm3tBo7bBNLAFp1bxD6lyvHi50BsZg6hEShSnE2yzCR
6wCC5fgBaQvzjdDyQ3Rut5RsNZ29rfTum7E8Eow7dwmNo+r76+MiTH0nPgizCIxs
zd1BaetmxMRjKzmu86kji179OXm0/Mx6N/rgaYM606DOqSHyEm4CCIh9v9Tnmqih
hzJLzqpR2907qryEn1GzL0/wMuk1aQCcKfi4dpsZ0+Zdn4FBwPQu7cRi3lORoVO8
EbtR8JqS1kejFTGy2geGYWejpsf2i8tocu+C1EAP/LINYmNduLPrtg==
-----END CERTIFICATE-----
